; Function Attrs: nounwind uwtable
define internal range(i32 0, 2) i32 @frame_worker_hook(ptr nocapture noundef %0, ptr nocapture readnone %1) #0 {
  %3 = alloca ptr, align 8
  %4 = getelementptr inbounds nuw i8, ptr %0, i64 8
  %5 = load ptr, ptr %4, align 8
  store ptr %5, ptr %3, align 8
  %6 = load ptr, ptr %0, align 8
  %7 = getelementptr inbounds nuw i8, ptr %0, i64 24
  %8 = load i64, ptr %7, align 8
  %9 = call i32 @av1_receive_compressed_data(ptr noundef %6, i64 noundef %8, ptr noundef nonnull %3) #12
  %10 = load ptr, ptr %3, align 8
  %11 = getelementptr inbounds nuw i8, ptr %0, i64 16
  store ptr %10, ptr %11, align 8
  %.not = icmp eq i32 %9, 0
  br i1 %.not, label %15, label %12

12:                                               ; preds = %2
  %13 = load ptr, ptr %0, align 8
  %14 = getelementptr inbounds nuw i8, ptr %13, i64 431856
  store i32 1, ptr %14, align 16
  br label %15

15:                                               ; preds = %12, %2
  %16 = zext i1 %.not to i32
  ret i32 %16
}